; Function Attrs: mustprogress uwtable
define void @_ZN2cv3dnn14dnn4_v202412233Net14setInputsNamesERKSt6vectorINSt7__cxx1112basic_stringIcSt11char_traitsIcESaIcEEESaIS9_EE(ptr noundef nonnull readonly align 8 captures(none) dereferenceable(16) %0, ptr noundef nonnull align 8 dereferenceable(24) %1) local_unnamed_addr #3 align 2 personality ptr @__gxx_personality_v0 {
  %3 = alloca %"class.cv::utils::trace::details::Region", align 8
  %4 = alloca %"class.std::__cxx11::basic_string", align 8
  %5 = alloca %"class.std::allocator", align 1
  call void @llvm.lifetime.start.p0(i64 16, ptr nonnull %3) #21
  call void @_ZN2cv5utils5trace7details6RegionC1ERKNS3_21LocationStaticStorageE(ptr noundef nonnull align 8 dereferenceable(12) %3, ptr noundef nonnull align 8 dereferenceable(32) @_ZZN2cv3dnn14dnn4_v202412233Net14setInputsNamesERKSt6vectorINSt7__cxx1112basic_stringIcSt11char_traitsIcESaIcEEESaIS9_EEE25__cv_trace_location_fn163)
  %6 = load ptr, ptr %0, align 8, !tbaa !17
  %.not = icmp eq ptr %6, null
  br i1 %.not, label %7, label %20

7:                                                ; preds = %2
  call void @llvm.lifetime.start.p0(i64 32, ptr nonnull %4) #21
  call void @llvm.lifetime.start.p0(i64 1, ptr nonnull %5) #21
  invoke void @_ZNSt7__cxx1112basic_stringIcSt11char_traitsIcESaIcEEC2EPKcRKS3_(ptr noundef nonnull align 8 dereferenceable(32) %4, ptr noundef nonnull @.str.2, ptr noundef nonnull align 1 dereferenceable(1) %5)
          to label %8 unwind label %10

8:                                                ; preds = %7
  invoke void @_ZN2cv5errorEiRKNSt7__cxx1112basic_stringIcSt11char_traitsIcESaIcEEEPKcS9_i(i32 noundef -215, ptr noundef nonnull align 8 dereferenceable(32) %4, ptr noundef nonnull @__func__._ZN2cv3dnn14dnn4_v202412233Net14setInputsNamesERKSt6vectorINSt7__cxx1112basic_stringIcSt11char_traitsIcESaIcEEESaIS9_EE, ptr noundef nonnull @.str.1, i32 noundef 164) #22
          to label %9 unwind label %12

9:                                                ; preds = %8
  unreachable

10:                                               ; preds = %7
  %11 = landingpad { ptr, i32 }
          cleanup
  br label %_ZNSt7__cxx1112basic_stringIcSt11char_traitsIcESaIcEED2Ev.exit

12:                                               ; preds = %8
  %13 = landingpad { ptr, i32 }
          cleanup
  %14 = load ptr, ptr %4, align 8, !tbaa !27
  %15 = getelementptr inbounds nuw i8, ptr %4, i64 16
  %16 = icmp eq ptr %14, %15
  br i1 %16, label %_ZNKSt7__cxx1112basic_stringIcSt11char_traitsIcESaIcEE11_M_is_localEv.exit.thread.i.i, label %_ZNKSt7__cxx1112basic_stringIcSt11char_traitsIcESaIcEE11_M_is_localEv.exit.i.i

_ZNKSt7__cxx1112basic_stringIcSt11char_traitsIcESaIcEE11_M_is_localEv.exit.thread.i.i: ; preds = %12
  %17 = getelementptr inbounds nuw i8, ptr %4, i64 8
  %18 = load i64, ptr %17, align 8, !tbaa !32
  %19 = icmp ult i64 %18, 16
  call void @llvm.assume(i1 %19)
  br label %_ZNSt7__cxx1112basic_stringIcSt11char_traitsIcESaIcEED2Ev.exit

_ZNKSt7__cxx1112basic_stringIcSt11char_traitsIcESaIcEE11_M_is_localEv.exit.i.i: ; preds = %12
  call void @_ZdlPv(ptr noundef %14) #20
  br label %_ZNSt7__cxx1112basic_stringIcSt11char_traitsIcESaIcEED2Ev.exit

_ZNSt7__cxx1112basic_stringIcSt11char_traitsIcESaIcEED2Ev.exit: ; preds = %_ZNKSt7__cxx1112basic_stringIcSt11char_traitsIcESaIcEE11_M_is_localEv.exit.i.i, %_ZNKSt7__cxx1112basic_stringIcSt11char_traitsIcESaIcEE11_M_is_localEv.exit.thread.i.i, %10
  %.pn = phi { ptr, i32 } [ %11, %10 ], [ %13, %_ZNKSt7__cxx1112basic_stringIcSt11char_traitsIcESaIcEE11_M_is_localEv.exit.thread.i.i ], [ %13, %_ZNKSt7__cxx1112basic_stringIcSt11char_traitsIcESaIcEE11_M_is_localEv.exit.i.i ]
  call void @llvm.lifetime.end.p0(i64 1, ptr nonnull %5) #21
  call void @llvm.lifetime.end.p0(i64 32, ptr nonnull %4) #21
  br label %30

20:                                               ; preds = %2
  invoke void @_ZN2cv3dnn14dnn4_v202412233Net4Impl14setInputsNamesERKSt6vectorINSt7__cxx1112basic_stringIcSt11char_traitsIcESaIcEEESaISA_EE(ptr noundef nonnull align 8 dereferenceable(504) %6, ptr noundef nonnull align 8 dereferenceable(24) %1)
          to label %21 unwind label %28

21:                                               ; preds = %20
  %22 = getelementptr inbounds nuw i8, ptr %3, i64 8
  %23 = load i32, ptr %22, align 8, !tbaa !33
  %.not.i = icmp eq i32 %23, 0
  br i1 %.not.i, label %_ZN2cv5utils5trace7details6RegionD2Ev.exit, label %24

24:                                               ; preds = %21
  invoke void @_ZN2cv5utils5trace7details6Region7destroyEv(ptr noundef nonnull align 8 dereferenceable(12) %3)
          to label %_ZN2cv5utils5trace7details6RegionD2Ev.exit unwind label %25

25:                                               ; preds = %24
  %26 = landingpad { ptr, i32 }
          catch ptr null
  %27 = extractvalue { ptr, i32 } %26, 0
  call void @__clang_call_terminate(ptr %27) #23
  unreachable

_ZN2cv5utils5trace7details6RegionD2Ev.exit:       ; preds = %21, %24
  call void @llvm.lifetime.end.p0(i64 16, ptr nonnull %3) #21
  ret void

28:                                               ; preds = %20
  %29 = landingpad { ptr, i32 }
          cleanup
  br label %30

30:                                               ; preds = %28, %_ZNSt7__cxx1112basic_stringIcSt11char_traitsIcESaIcEED2Ev.exit
  %.pn6 = phi { ptr, i32 } [ %29, %28 ], [ %.pn, %_ZNSt7__cxx1112basic_stringIcSt11char_traitsIcESaIcEED2Ev.exit ]
  call void @_ZN2cv5utils5trace7details6RegionD2Ev(ptr noundef nonnull align 8 dereferenceable(12) %3) #21
  call void @llvm.lifetime.end.p0(i64 16, ptr nonnull %3) #21
  resume { ptr, i32 } %.pn6
}